target datalayout = "e-m:e-p270:32:32-p271:32:32-p272:64:64-i64:64-i128:128-f80:128-n8:16:32:64-S128"
target triple = "x86_64-pc-linux-gnu"

; Function Attrs: mustprogress nounwind uwtable
define hidden noundef ptr @_ZN14ZCollectedHeap34satisfy_failed_metadata_allocationEP15ClassLoaderDatamN9Metaspace12MetadataTypeE(ptr noundef nonnull align 64 dereferenceable(16344) %0, ptr noundef %1, i64 noundef %2, i32 noundef %3) unnamed_addr #1 align 2 {
  %5 = alloca ptr, align 8
  %6 = alloca ptr, align 8
  %7 = alloca ptr, align 8
  %8 = alloca i64, align 8
  %9 = alloca i32, align 4
  %10 = alloca ptr, align 8
  store ptr %0, ptr %6, align 8
  store ptr %1, ptr %7, align 8
  store i64 %2, ptr %8, align 8
  store i32 %3, ptr %9, align 4
  %11 = load ptr, ptr %6, align 8
  %12 = load ptr, ptr %11, align 64
  %13 = getelementptr inbounds ptr, ptr %12, i64 24
  %14 = load ptr, ptr %13, align 8
  call void %14(ptr noundef nonnull align 64 dereferenceable(16344) %11, i32 noundef 16)
  %15 = load ptr, ptr %7, align 8
  %16 = call noundef ptr @_ZN15ClassLoaderData18metaspace_non_nullEv(ptr noundef nonnull align 8 dereferenceable(160) %15)
  %17 = load i64, ptr %8, align 8
  %18 = load i32, ptr %9, align 4
  %19 = call noundef ptr @_ZN20ClassLoaderMetaspace19expand_and_allocateEmN9Metaspace12MetadataTypeE(ptr noundef nonnull align 8 dereferenceable(32) %16, i64 noundef %17, i32 noundef %18)
  store ptr %19, ptr %10, align 8
  %20 = load ptr, ptr %10, align 8
  %21 = icmp ne ptr %20, null
  br i1 %21, label %22, label %24

22:                                               ; preds = %4
  %23 = load ptr, ptr %10, align 8
  store ptr %23, ptr %5, align 8
  br label %29

24:                                               ; preds = %4
  %25 = load ptr, ptr %7, align 8
  %26 = load i64, ptr %8, align 8
  %27 = load i32, ptr %9, align 4
  %28 = call noundef ptr @_ZN27MetaspaceCriticalAllocation8allocateEP15ClassLoaderDatamN9Metaspace12MetadataTypeE(ptr noundef %25, i64 noundef %26, i32 noundef %27)
  store ptr %28, ptr %5, align 8
  br label %29

29:                                               ; preds = %24, %22
  %30 = load ptr, ptr %5, align 8
  ret ptr %30
}